target datalayout = "e-m:e-p270:32:32-p271:32:32-p272:64:64-i64:64-i128:128-f80:128-n8:16:32:64-S128"
target triple = "x86_64-pc-linux-gnu"

%"class.std::basic_string_view" = type { i64, ptr }

@.str.25 = private unnamed_addr constant [26 x i8] c"basic_string_view::substr\00", align 1
@.str.26 = private unnamed_addr constant [49 x i8] c"%s: __pos (which is %zu) > __size (which is %zu)\00", align 1

; Function Attrs: noreturn nounwind uwtable
define linkonce_odr hidden void @__clang_call_terminate(ptr noundef %0) #9 comdat {
  %2 = call ptr @__cxa_begin_catch(ptr %0) #1
  call void @_ZSt9terminatev() #17
  unreachable
}

; Function Attrs: mustprogress nounwind uwtable
define linkonce_odr noundef i32 @_ZNSt17basic_string_viewIcSt11char_traitsIcEE10_S_compareEmm(i64 noundef %0, i64 noundef %1) #2 comdat align 2 {
  %3 = alloca i32, align 4
  %4 = alloca i64, align 8
  %5 = alloca i64, align 8
  %6 = alloca i64, align 8
  store i64 %0, ptr %4, align 8
  store i64 %1, ptr %5, align 8
  %7 = load i64, ptr %4, align 8
  %8 = load i64, ptr %5, align 8
  %9 = sub i64 %7, %8
  store i64 %9, ptr %6, align 8
  %10 = load i64, ptr %6, align 8
  %11 = icmp sgt i64 %10, 2147483647
  br i1 %11, label %12, label %13

12:                                               ; preds = %2
  store i32 2147483647, ptr %3, align 4
  br label %20

13:                                               ; preds = %2
  %14 = load i64, ptr %6, align 8
  %15 = icmp slt i64 %14, -2147483648
  br i1 %15, label %16, label %17

16:                                               ; preds = %13
  store i32 -2147483648, ptr %3, align 4
  br label %20

17:                                               ; preds = %13
  %18 = load i64, ptr %6, align 8
  %19 = trunc i64 %18 to i32
  store i32 %19, ptr %3, align 4
  br label %20

20:                                               ; preds = %17, %16, %12
  %21 = load i32, ptr %3, align 4
  ret i32 %21
}

; Function Attrs: mustprogress nounwind uwtable
define linkonce_odr noundef i32 @_ZNSt11char_traitsIcE7compareEPKcS2_m(ptr noundef %0, ptr noundef %1, i64 noundef %2) #2 comdat align 2 {
  %4 = alloca i32, align 4
  %5 = alloca ptr, align 8
  %6 = alloca ptr, align 8
  %7 = alloca i64, align 8
  store ptr %0, ptr %5, align 8
  store ptr %1, ptr %6, align 8
  store i64 %2, ptr %7, align 8
  %8 = load i64, ptr %7, align 8
  %9 = icmp eq i64 %8, 0
  br i1 %9, label %10, label %11

10:                                               ; preds = %3
  store i32 0, ptr %4, align 4
  br label %16

11:                                               ; preds = %3
  %12 = load ptr, ptr %5, align 8
  %13 = load ptr, ptr %6, align 8
  %14 = load i64, ptr %7, align 8
  %15 = call i32 @memcmp(ptr noundef %12, ptr noundef %13, i64 noundef %14) #1
  store i32 %15, ptr %4, align 4
  br label %16

16:                                               ; preds = %11, %10
  %17 = load i32, ptr %4, align 4
  ret i32 %17
}

; Function Attrs: mustprogress nounwind uwtable
define linkonce_odr void @_ZNSt17basic_string_viewIcSt11char_traitsIcEEC2EPKcm(ptr noundef nonnull align 8 dereferenceable(16) %0, ptr noundef %1, i64 noundef %2) unnamed_addr #2 comdat align 2 {
  %4 = alloca ptr, align 8
  %5 = alloca ptr, align 8
  %6 = alloca i64, align 8
  store ptr %0, ptr %4, align 8
  store ptr %1, ptr %5, align 8
  store i64 %2, ptr %6, align 8
  %7 = load ptr, ptr %4, align 8
  %8 = getelementptr inbounds %"class.std::basic_string_view", ptr %7, i32 0, i32 0
  %9 = load i64, ptr %6, align 8
  store i64 %9, ptr %8, align 8
  %10 = getelementptr inbounds %"class.std::basic_string_view", ptr %7, i32 0, i32 1
  %11 = load ptr, ptr %5, align 8
  store ptr %11, ptr %10, align 8
  ret void
}

; Function Attrs: mustprogress nounwind uwtable
define linkonce_odr noundef nonnull align 8 dereferenceable(8) ptr @_ZSt3minImERKT_S2_S2_(ptr noundef nonnull align 8 dereferenceable(8) %0, ptr noundef nonnull align 8 dereferenceable(8) %1) #2 comdat {
  %3 = alloca ptr, align 8
  %4 = alloca ptr, align 8
  %5 = alloca ptr, align 8
  store ptr %0, ptr %4, align 8
  store ptr %1, ptr %5, align 8
  %6 = load ptr, ptr %5, align 8
  %7 = load i64, ptr %6, align 8
  %8 = load ptr, ptr %4, align 8
  %9 = load i64, ptr %8, align 8
  %10 = icmp ult i64 %7, %9
  br i1 %10, label %11, label %13

11:                                               ; preds = %2
  %12 = load ptr, ptr %5, align 8
  store ptr %12, ptr %3, align 8
  br label %15

13:                                               ; preds = %2
  %14 = load ptr, ptr %4, align 8
  store ptr %14, ptr %3, align 8
  br label %15

15:                                               ; preds = %13, %11
  %16 = load ptr, ptr %3, align 8
  ret ptr %16
}

; Function Attrs: mustprogress uwtable
define linkonce_odr noundef i64 @_ZSt10__sv_checkmmPKc(i64 noundef %0, i64 noundef %1, ptr noundef %2) #5 comdat {
  %4 = alloca i64, align 8
  %5 = alloca i64, align 8
  %6 = alloca ptr, align 8
  store i64 %0, ptr %4, align 8
  store i64 %1, ptr %5, align 8
  store ptr %2, ptr %6, align 8
  %7 = load i64, ptr %5, align 8
  %8 = load i64, ptr %4, align 8
  %9 = icmp ugt i64 %7, %8
  br i1 %9, label %10, label %14

10:                                               ; preds = %3
  %11 = load ptr, ptr %6, align 8
  %12 = load i64, ptr %5, align 8
  %13 = load i64, ptr %4, align 8
  call void (ptr, ...) @_ZSt24__throw_out_of_range_fmtPKcz(ptr noundef @.str.26, ptr noundef %11, i64 noundef %12, i64 noundef %13) #18
  unreachable

14:                                               ; preds = %3
  %15 = load i64, ptr %5, align 8
  ret i64 %15
}

; Function Attrs: mustprogress nounwind uwtable
define linkonce_odr noundef i32 @_ZNKSt17basic_string_viewIcSt11char_traitsIcEE7compareES2_(ptr noundef nonnull align 8 dereferenceable(16) %0, i64 %1, ptr %2) #2 comdat align 2 personality ptr @__gxx_personality_v0 {
  %4 = alloca %"class.std::basic_string_view", align 8
  %5 = alloca ptr, align 8
  %6 = alloca i64, align 8
  %7 = alloca i32, align 4
  %8 = getelementptr inbounds { i64, ptr }, ptr %4, i32 0, i32 0
  store i64 %1, ptr %8, align 8
  %9 = getelementptr inbounds { i64, ptr }, ptr %4, i32 0, i32 1
  store ptr %2, ptr %9, align 8
  store ptr %0, ptr %5, align 8
  %10 = load ptr, ptr %5, align 8
  %11 = getelementptr inbounds %"class.std::basic_string_view", ptr %10, i32 0, i32 0
  %12 = getelementptr inbounds %"class.std::basic_string_view", ptr %4, i32 0, i32 0
  %13 = invoke noundef nonnull align 8 dereferenceable(8) ptr @_ZSt3minImERKT_S2_S2_(ptr noundef nonnull align 8 dereferenceable(8) %11, ptr noundef nonnull align 8 dereferenceable(8) %12)
          to label %14 unwind label %32

14:                                               ; preds = %3
  %15 = load i64, ptr %13, align 8
  store i64 %15, ptr %6, align 8
  %16 = getelementptr inbounds %"class.std::basic_string_view", ptr %10, i32 0, i32 1
  %17 = load ptr, ptr %16, align 8
  %18 = getelementptr inbounds %"class.std::basic_string_view", ptr %4, i32 0, i32 1
  %19 = load ptr, ptr %18, align 8
  %20 = load i64, ptr %6, align 8
  %21 = call noundef i32 @_ZNSt11char_traitsIcE7compareEPKcS2_m(ptr noundef %17, ptr noundef %19, i64 noundef %20)
  store i32 %21, ptr %7, align 4
  %22 = load i32, ptr %7, align 4
  %23 = icmp eq i32 %22, 0
  br i1 %23, label %24, label %30

24:                                               ; preds = %14
  %25 = getelementptr inbounds %"class.std::basic_string_view", ptr %10, i32 0, i32 0
  %26 = load i64, ptr %25, align 8
  %27 = getelementptr inbounds %"class.std::basic_string_view", ptr %4, i32 0, i32 0
  %28 = load i64, ptr %27, align 8
  %29 = call noundef i32 @_ZNSt17basic_string_viewIcSt11char_traitsIcEE10_S_compareEmm(i64 noundef %26, i64 noundef %28) #1
  store i32 %29, ptr %7, align 4
  br label %30

30:                                               ; preds = %24, %14
  %31 = load i32, ptr %7, align 4
  ret i32 %31

32:                                               ; preds = %3
  %33 = landingpad { ptr, i32 }
          catch ptr null
  %34 = extractvalue { ptr, i32 } %33, 0
  call void @__clang_call_terminate(ptr %34) #17
  unreachable
}

; Function Attrs: mustprogress uwtable
define linkonce_odr { i64, ptr } @_ZNKSt17basic_string_viewIcSt11char_traitsIcEE6substrEmm(ptr noundef nonnull align 8 dereferenceable(16) %0, i64 noundef %1, i64 noundef %2) #5 comdat align 2 {
  %4 = alloca %"class.std::basic_string_view", align 8
  %5 = alloca ptr, align 8
  %6 = alloca i64, align 8
  %7 = alloca i64, align 8
  %8 = alloca i64, align 8
  %9 = alloca i64, align 8
  store ptr %0, ptr %5, align 8
  store i64 %1, ptr %6, align 8
  store i64 %2, ptr %7, align 8
  %10 = load ptr, ptr %5, align 8
  %11 = call noundef i64 @_ZNKSt17basic_string_viewIcSt11char_traitsIcEE4sizeEv(ptr noundef nonnull align 8 dereferenceable(16) %10) #1
  %12 = load i64, ptr %6, align 8
  %13 = call noundef i64 @_ZSt10__sv_checkmmPKc(i64 noundef %11, i64 noundef %12, ptr noundef @.str.25)
  store i64 %13, ptr %6, align 8
  %14 = getelementptr inbounds %"class.std::basic_string_view", ptr %10, i32 0, i32 0
  %15 = load i64, ptr %14, align 8
  %16 = load i64, ptr %6, align 8
  %17 = sub i64 %15, %16
  store i64 %17, ptr %9, align 8
  %18 = call noundef nonnull align 8 dereferenceable(8) ptr @_ZSt3minImERKT_S2_S2_(ptr noundef nonnull align 8 dereferenceable(8) %7, ptr noundef nonnull align 8 dereferenceable(8) %9)
  %19 = load i64, ptr %18, align 8
  store i64 %19, ptr %8, align 8
  %20 = getelementptr inbounds %"class.std::basic_string_view", ptr %10, i32 0, i32 1
  %21 = load ptr, ptr %20, align 8
  %22 = load i64, ptr %6, align 8
  %23 = getelementptr inbounds i8, ptr %21, i64 %22
  %24 = load i64, ptr %8, align 8
  call void @_ZNSt17basic_string_viewIcSt11char_traitsIcEEC2EPKcm(ptr noundef nonnull align 8 dereferenceable(16) %4, ptr noundef %23, i64 noundef %24) #1
  %25 = load { i64, ptr }, ptr %4, align 8
  ret { i64, ptr } %25
}

; Function Attrs: mustprogress uwtable
define linkonce_odr noundef i32 @_ZNKSt17basic_string_viewIcSt11char_traitsIcEE7compareEmmS2_(ptr noundef nonnull align 8 dereferenceable(16) %0, i64 noundef %1, i64 noundef %2, i64 %3, ptr %4) #5 comdat align 2 {
  %6 = alloca %"class.std::basic_string_view", align 8
  %7 = alloca ptr, align 8
  %8 = alloca i64, align 8
  %9 = alloca i64, align 8
  %10 = alloca %"class.std::basic_string_view", align 8
  %11 = alloca %"class.std::basic_string_view", align 8
  %12 = getelementptr inbounds { i64, ptr }, ptr %6, i32 0, i32 0
  store i64 %3, ptr %12, align 8
  %13 = getelementptr inbounds { i64, ptr }, ptr %6, i32 0, i32 1
  store ptr %4, ptr %13, align 8
  store ptr %0, ptr %7, align 8
  store i64 %1, ptr %8, align 8
  store i64 %2, ptr %9, align 8
  %14 = load ptr, ptr %7, align 8
  %15 = load i64, ptr %8, align 8
  %16 = load i64, ptr %9, align 8
  %17 = call { i64, ptr } @_ZNKSt17basic_string_viewIcSt11char_traitsIcEE6substrEmm(ptr noundef nonnull align 8 dereferenceable(16) %14, i64 noundef %15, i64 noundef %16)
  %18 = getelementptr inbounds { i64, ptr }, ptr %10, i32 0, i32 0
  %19 = extractvalue { i64, ptr } %17, 0
  store i64 %19, ptr %18, align 8
  %20 = getelementptr inbounds { i64, ptr }, ptr %10, i32 0, i32 1
  %21 = extractvalue { i64, ptr } %17, 1
  store ptr %21, ptr %20, align 8
  call void @llvm.memcpy.p0.p0.i64(ptr align 8 %11, ptr align 8 %6, i64 16, i1 false)
  %22 = getelementptr inbounds { i64, ptr }, ptr %11, i32 0, i32 0
  %23 = load i64, ptr %22, align 8
  %24 = getelementptr inbounds { i64, ptr }, ptr %11, i32 0, i32 1
  %25 = load ptr, ptr %24, align 8
  %26 = call noundef i32 @_ZNKSt17basic_string_viewIcSt11char_traitsIcEE7compareES2_(ptr noundef nonnull align 8 dereferenceable(16) %10, i64 %23, ptr %25) #1
  ret i32 %26
}

; Function Attrs: mustprogress nounwind uwtable
define linkonce_odr noundef i64 @_ZNKSt17basic_string_viewIcSt11char_traitsIcEE4sizeEv(ptr noundef nonnull align 8 dereferenceable(16) %0) #2 comdat align 2 {
  %2 = alloca ptr, align 8
  store ptr %0, ptr %2, align 8
  %3 = load ptr, ptr %2, align 8
  %4 = getelementptr inbounds %"class.std::basic_string_view", ptr %3, i32 0, i32 0
  %5 = load i64, ptr %4, align 8
  ret i64 %5
}

; Function Attrs: mustprogress uwtable
define noundef zeroext i1 @_ZN3nix9hasPrefixESt17basic_string_viewIcSt11char_traitsIcEES3_(i64 %0, ptr %1, i64 %2, ptr %3) #5 {
  %5 = alloca %"class.std::basic_string_view", align 8
  %6 = alloca %"class.std::basic_string_view", align 8
  %7 = alloca %"class.std::basic_string_view", align 8
  %8 = getelementptr inbounds { i64, ptr }, ptr %5, i32 0, i32 0
  store i64 %0, ptr %8, align 8
  %9 = getelementptr inbounds { i64, ptr }, ptr %5, i32 0, i32 1
  store ptr %1, ptr %9, align 8
  %10 = getelementptr inbounds { i64, ptr }, ptr %6, i32 0, i32 0
  store i64 %2, ptr %10, align 8
  %11 = getelementptr inbounds { i64, ptr }, ptr %6, i32 0, i32 1
  store ptr %3, ptr %11, align 8
  %12 = call noundef i64 @_ZNKSt17basic_string_viewIcSt11char_traitsIcEE4sizeEv(ptr noundef nonnull align 8 dereferenceable(16) %6) #1
  call void @llvm.memcpy.p0.p0.i64(ptr align 8 %7, ptr align 8 %6, i64 16, i1 false)
  %13 = getelementptr inbounds { i64, ptr }, ptr %7, i32 0, i32 0
  %14 = load i64, ptr %13, align 8
  %15 = getelementptr inbounds { i64, ptr }, ptr %7, i32 0, i32 1
  %16 = load ptr, ptr %15, align 8
  %17 = call noundef i32 @_ZNKSt17basic_string_viewIcSt11char_traitsIcEE7compareEmmS2_(ptr noundef nonnull align 8 dereferenceable(16) %5, i64 noundef 0, i64 noundef %12, i64 %14, ptr %16)
  %18 = icmp eq i32 %17, 0
  ret i1 %18
}