; Function Attrs: mustprogress nofree nounwind willreturn memory(argmem: read) uwtable
define noundef zeroext i1 @_ZN3nix9hasPrefixESt17basic_string_viewIcSt11char_traitsIcEES3_(i64 %0, ptr nocapture readonly %1, i64 %2, ptr nocapture readonly %3) local_unnamed_addr #8 personality ptr @__gxx_personality_v0 {
  %.sroa.speculated.i.i = tail call i64 @llvm.umin.i64(i64 %0, i64 %2)
  %5 = icmp eq i64 %.sroa.speculated.i.i, 0
  br i1 %5, label %_ZNSt11char_traitsIcE7compareEPKcS2_m.exit.thread.i.i, label %_ZNSt11char_traitsIcE7compareEPKcS2_m.exit.i.i

_ZNSt11char_traitsIcE7compareEPKcS2_m.exit.i.i:   ; preds = %4
  %bcmp = tail call i32 @bcmp(ptr %1, ptr %3, i64 %.sroa.speculated.i.i)
  %6 = icmp eq i32 %bcmp, 0
  br i1 %6, label %_ZNSt11char_traitsIcE7compareEPKcS2_m.exit.thread.i.i, label %_ZNKSt17basic_string_viewIcSt11char_traitsIcEE7compareEmmS2_.exit

_ZNSt11char_traitsIcE7compareEPKcS2_m.exit.thread.i.i: ; preds = %_ZNSt11char_traitsIcE7compareEPKcS2_m.exit.i.i, %4
  %7 = sub i64 %.sroa.speculated.i.i, %2
  %spec.select7.i.i.i = tail call i64 @llvm.smax.i64(i64 %7, i64 -2147483648)
  %.08.i.i.i = tail call i64 @llvm.smin.i64(i64 %spec.select7.i.i.i, i64 2147483647)
  %8 = and i64 %.08.i.i.i, 4294967295
  %9 = icmp eq i64 %8, 0
  br label %_ZNKSt17basic_string_viewIcSt11char_traitsIcEE7compareEmmS2_.exit

_ZNKSt17basic_string_viewIcSt11char_traitsIcEE7compareEmmS2_.exit: ; preds = %_ZNSt11char_traitsIcE7compareEPKcS2_m.exit.i.i, %_ZNSt11char_traitsIcE7compareEPKcS2_m.exit.thread.i.i
  %.0.i.i = phi i1 [ %9, %_ZNSt11char_traitsIcE7compareEPKcS2_m.exit.thread.i.i ], [ false, %_ZNSt11char_traitsIcE7compareEPKcS2_m.exit.i.i ]
  ret i1 %.0.i.i
}